; Function Attrs: nounwind uwtable
define dso_local void @cleanup_message(ptr noundef %0, i32 noundef %1, i32 noundef %2) local_unnamed_addr #0 {
  %4 = icmp ne i32 %2, 0
  %5 = icmp eq i32 %1, 2
  %or.cond = or i1 %5, %4
  br i1 %or.cond, label %6, label %strbuf_setlen.exit

6:                                                ; preds = %3
  %7 = getelementptr inbounds nuw i8, ptr %0, i64 16
  %8 = load ptr, ptr %7, align 8, !tbaa !31
  %9 = getelementptr inbounds nuw i8, ptr %0, i64 8
  %10 = load i64, ptr %9, align 8, !tbaa !33
  %11 = tail call i64 @wt_status_locate_end(ptr noundef %8, i64 noundef %10) #20
  %12 = load i64, ptr %0, align 8, !tbaa !34
  %spec.select.i = tail call i64 @llvm.usub.sat.i64(i64 %12, i64 1)
  %13 = icmp ugt i64 %11, %spec.select.i
  br i1 %13, label %14, label %15

14:                                               ; preds = %6
  tail call void (ptr, i32, ptr, ...) @BUG_fl(ptr noundef nonnull @.str.114, i32 noundef 167, ptr noundef nonnull @.str.115) #22
  unreachable

15:                                               ; preds = %6
  store i64 %11, ptr %9, align 8, !tbaa !33
  %16 = load ptr, ptr %7, align 8, !tbaa !31
  %.not9.i = icmp eq ptr %16, @strbuf_slopbuf
  br i1 %.not9.i, label %strbuf_setlen.exit, label %17

17:                                               ; preds = %15
  %18 = getelementptr inbounds nuw i8, ptr %16, i64 %11
  store i8 0, ptr %18, align 1, !tbaa !24
  br label %strbuf_setlen.exit

strbuf_setlen.exit:                               ; preds = %17, %15, %3
  %.not = icmp eq i32 %1, 1
  br i1 %.not, label %23, label %19

19:                                               ; preds = %strbuf_setlen.exit
  %20 = icmp eq i32 %1, 3
  %21 = load ptr, ptr @comment_line_str, align 8
  %22 = select i1 %20, ptr %21, ptr null
  tail call void @strbuf_stripspace(ptr noundef %0, ptr noundef %22) #20
  br label %23

23:                                               ; preds = %19, %strbuf_setlen.exit
  ret void
}